GAS LISTING C:\Users\Computer\AppData\Local\Temp\ccCJDMIL.s 			page 1


   1              		.file	"ControleAluno.c"
   2              		.intel_syntax noprefix
   3              		.text
   4              	.Ltext0:
   5              		.cfi_sections	.debug_frame
   6              		.section .rdata,"dr"
   7              	.LC0:
   8 0000 4A756E69 		.ascii "Junior\0"
   8      6F7200
   9              	.LC1:
  10 0007 53656E69 		.ascii "Senior\0"
  10      6F7200
  11 000e 0000     		.text
  12              		.globl	classificaAluno
  14              		.seh_proc	classificaAluno
  15              	classificaAluno:
  16              	.LFB13:
  17              		.file 1 "C:/Users/Computer/ies/ies/IEST2/ControleAluno.c"
   1:C:/Users/Computer/ies/ies/IEST2\ControleAluno.c **** #include <stdio.h>
   2:C:/Users/Computer/ies/ies/IEST2\ControleAluno.c **** 
   3:C:/Users/Computer/ies/ies/IEST2\ControleAluno.c **** extern char nome[100];
   4:C:/Users/Computer/ies/ies/IEST2\ControleAluno.c **** extern int idade;
   5:C:/Users/Computer/ies/ies/IEST2\ControleAluno.c **** 
   6:C:/Users/Computer/ies/ies/IEST2\ControleAluno.c **** void classificaAluno(char *classificacao) {
  18              		.loc 1 6 43
  19              		.cfi_startproc
  20 0000 55       		push	rbp
  21              		.seh_pushreg	rbp
  22              		.cfi_def_cfa_offset 16
  23              		.cfi_offset 6, -16
  24 0001 4889E5   		mov	rbp, rsp
  25              		.seh_setframe	rbp, 0
  26              		.cfi_def_cfa_register 6
  27 0004 4883EC20 		sub	rsp, 32
  28              		.seh_stackalloc	32
  29              		.seh_endprologue
  30 0008 48894D10 		mov	QWORD PTR 16[rbp], rcx
   7:C:/Users/Computer/ies/ies/IEST2\ControleAluno.c ****     if (idade < 18) {
  31              		.loc 1 7 15
  32 000c 488B0500 		mov	rax, QWORD PTR .refptr.idade[rip]
  32      000000
  33 0013 8B00     		mov	eax, DWORD PTR [rax]
  34              		.loc 1 7 8
  35 0015 83F811   		cmp	eax, 17
  36 0018 7F12     		jg	.L2
   8:C:/Users/Computer/ies/ies/IEST2\ControleAluno.c ****         sprintf(classificacao, "Junior");
  37              		.loc 1 8 9
  38 001a 488D1500 		lea	rdx, .LC0[rip]
  38      000000
  39 0021 488B4D10 		mov	rcx, QWORD PTR 16[rbp]
  40 0025 E8000000 		call	sprintf
  40      00
   9:C:/Users/Computer/ies/ies/IEST2\ControleAluno.c ****     } else {
  10:C:/Users/Computer/ies/ies/IEST2\ControleAluno.c ****         sprintf(classificacao, "Senior");
  11:C:/Users/Computer/ies/ies/IEST2\ControleAluno.c ****     }
  12:C:/Users/Computer/ies/ies/IEST2\ControleAluno.c **** }
  41              		.loc 1 12 1
GAS LISTING C:\Users\Computer\AppData\Local\Temp\ccCJDMIL.s 			page 2


  42 002a EB10     		jmp	.L4
  43              	.L2:
  10:C:/Users/Computer/ies/ies/IEST2\ControleAluno.c ****     }
  44              		.loc 1 10 9
  45 002c 488D1507 		lea	rdx, .LC1[rip]
  45      000000
  46 0033 488B4D10 		mov	rcx, QWORD PTR 16[rbp]
  47 0037 E8000000 		call	sprintf
  47      00
  48              	.L4:
  49              		.loc 1 12 1
  50 003c 90       		nop
  51 003d 4883C420 		add	rsp, 32
  52 0041 5D       		pop	rbp
  53              		.cfi_restore 6
  54              		.cfi_def_cfa 7, 8
  55 0042 C3       		ret
  56              		.cfi_endproc
  57              	.LFE13:
  58              		.seh_endproc
  59              	.Letext0:
 290              		.section	.rdata$.refptr.idade, "dr"
 291              		.globl	.refptr.idade
 292              		.linkonce	discard
 293              	.refptr.idade:
 294 0000 00000000 		.quad	idade
 294      00000000 
 294      00000000 
 294      00000000 
GAS LISTING C:\Users\Computer\AppData\Local\Temp\ccCJDMIL.s 			page 8

