GAS LISTING C:\Users\Computer\AppData\Local\Temp\ccMTNQWb.s 			page 1


   1              		.file	"InterfaceAluno.c"
   2              		.intel_syntax noprefix
   3              		.text
   4              	.Ltext0:
   5              		.cfi_sections	.debug_frame
   6              		.comm	nome, 100, 5
   7              		.comm	idade, 4, 2
   8              		.section .rdata,"dr"
   9              	.LC0:
  10 0000 44696769 		.ascii "Digite seu nome: \0"
  10      74652073 
  10      6575206E 
  10      6F6D653A 
  10      2000
  11 0012 00000000 		.align 8
  11      0000
  12              	.LC1:
  13 0018 456E7472 		.ascii "Entrada invalida. Por favor, digite apenas letras.\0"
  13      61646120 
  13      696E7661 
  13      6C696461 
  13      2E20506F 
  14              		.text
  15              		.globl	valida_nome
  17              		.seh_proc	valida_nome
  18              	valida_nome:
  19              	.LFB13:
  20              		.file 1 "C:/Users/Computer/ies/ies/IEST2/InterfaceAluno.c"
   1:C:/Users/Computer/ies/ies/IEST2\InterfaceAluno.c **** #include <stdio.h>
   2:C:/Users/Computer/ies/ies/IEST2\InterfaceAluno.c **** #include <ctype.h>
   3:C:/Users/Computer/ies/ies/IEST2\InterfaceAluno.c **** 
   4:C:/Users/Computer/ies/ies/IEST2\InterfaceAluno.c **** char nome[100];
   5:C:/Users/Computer/ies/ies/IEST2\InterfaceAluno.c **** int idade;
   6:C:/Users/Computer/ies/ies/IEST2\InterfaceAluno.c **** 
   7:C:/Users/Computer/ies/ies/IEST2\InterfaceAluno.c **** void valida_nome() {
  21              		.loc 1 7 20
  22              		.cfi_startproc
  23 0000 55       		push	rbp
  24              		.seh_pushreg	rbp
  25              		.cfi_def_cfa_offset 16
  26              		.cfi_offset 6, -16
  27 0001 4889E5   		mov	rbp, rsp
  28              		.seh_setframe	rbp, 0
  29              		.cfi_def_cfa_register 6
  30 0004 4883EC30 		sub	rsp, 48
  31              		.seh_stackalloc	48
  32              		.seh_endprologue
   8:C:/Users/Computer/ies/ies/IEST2\InterfaceAluno.c ****     int validoNome = 0;
  33              		.loc 1 8 9
  34 0008 C745FC00 		mov	DWORD PTR -4[rbp], 0
  34      000000
   9:C:/Users/Computer/ies/ies/IEST2\InterfaceAluno.c **** 
  10:C:/Users/Computer/ies/ies/IEST2\InterfaceAluno.c ****     while (!validoNome) {
  35              		.loc 1 10 11
  36 000f E9B80000 		jmp	.L2
  36      00
  37              	.L6:
GAS LISTING C:\Users\Computer\AppData\Local\Temp\ccMTNQWb.s 			page 2


  11:C:/Users/Computer/ies/ies/IEST2\InterfaceAluno.c ****         printf("Digite seu nome: ");
  38              		.loc 1 11 9
  39 0014 488D0D00 		lea	rcx, .LC0[rip]
  39      000000
  40 001b E8000000 		call	printf
  40      00
  12:C:/Users/Computer/ies/ies/IEST2\InterfaceAluno.c ****         fgets(nome, sizeof(nome), stdin);
  41              		.loc 1 12 9
  42 0020 B9000000 		mov	ecx, 0
  42      00
  43 0025 488B0500 		mov	rax, QWORD PTR __imp___acrt_iob_func[rip]
  43      000000
  44 002c FFD0     		call	rax
  45              	.LVL0:
  46 002e 4989C0   		mov	r8, rax
  47 0031 BA640000 		mov	edx, 100
  47      00
  48 0036 488D0500 		lea	rax, nome[rip]
  48      000000
  49 003d 4889C1   		mov	rcx, rax
  50 0040 E8000000 		call	fgets
  50      00
  13:C:/Users/Computer/ies/ies/IEST2\InterfaceAluno.c ****         validoNome = 1;
  51              		.loc 1 13 20
  52 0045 C745FC01 		mov	DWORD PTR -4[rbp], 1
  52      000000
  53              	.LBB2:
  14:C:/Users/Computer/ies/ies/IEST2\InterfaceAluno.c ****         for (int i = 0; nome[i] != '\0' && nome[i] != '\n'; i++) {
  54              		.loc 1 14 18
  55 004c C745F800 		mov	DWORD PTR -8[rbp], 0
  55      000000
  56              		.loc 1 14 9
  57 0053 EB4F     		jmp	.L3
  58              	.L5:
  15:C:/Users/Computer/ies/ies/IEST2\InterfaceAluno.c ****             if (!isalpha(nome[i]) && nome[i] != ' ') {
  59              		.loc 1 15 30
  60 0055 488D1500 		lea	rdx, nome[rip]
  60      000000
  61 005c 8B45F8   		mov	eax, DWORD PTR -8[rbp]
  62 005f 4898     		cdqe
  63 0061 0FB60402 		movzx	eax, BYTE PTR [rdx+rax]
  64              		.loc 1 15 18
  65 0065 0FBEC0   		movsx	eax, al
  66 0068 89C1     		mov	ecx, eax
  67 006a 488B0500 		mov	rax, QWORD PTR __imp_isalpha[rip]
  67      000000
  68 0071 FFD0     		call	rax
  69              	.LVL1:
  70              		.loc 1 15 16
  71 0073 85C0     		test	eax, eax
  72 0075 7529     		jne	.L4
  73              		.loc 1 15 42 discriminator 1
  74 0077 488D1500 		lea	rdx, nome[rip]
  74      000000
  75 007e 8B45F8   		mov	eax, DWORD PTR -8[rbp]
  76 0081 4898     		cdqe
  77 0083 0FB60402 		movzx	eax, BYTE PTR [rdx+rax]
GAS LISTING C:\Users\Computer\AppData\Local\Temp\ccMTNQWb.s 			page 3


  78              		.loc 1 15 35 discriminator 1
  79 0087 3C20     		cmp	al, 32
  80 0089 7415     		je	.L4
  16:C:/Users/Computer/ies/ies/IEST2\InterfaceAluno.c ****                 validoNome = 0;
  81              		.loc 1 16 28
  82 008b C745FC00 		mov	DWORD PTR -4[rbp], 0
  82      000000
  17:C:/Users/Computer/ies/ies/IEST2\InterfaceAluno.c ****                 printf("Entrada invalida. Por favor, digite apenas letras.\n");
  83              		.loc 1 17 17
  84 0092 488D0D18 		lea	rcx, .LC1[rip]
  84      000000
  85 0099 E8000000 		call	puts
  85      00
  18:C:/Users/Computer/ies/ies/IEST2\InterfaceAluno.c ****                 break;
  86              		.loc 1 18 17
  87 009e EB2C     		jmp	.L2
  88              	.L4:
  14:C:/Users/Computer/ies/ies/IEST2\InterfaceAluno.c ****             if (!isalpha(nome[i]) && nome[i] != ' ') {
  89              		.loc 1 14 62 discriminator 2
  90 00a0 8345F801 		add	DWORD PTR -8[rbp], 1
  91              	.L3:
  14:C:/Users/Computer/ies/ies/IEST2\InterfaceAluno.c ****             if (!isalpha(nome[i]) && nome[i] != ' ') {
  92              		.loc 1 14 29 discriminator 1
  93 00a4 488D1500 		lea	rdx, nome[rip]
  93      000000
  94 00ab 8B45F8   		mov	eax, DWORD PTR -8[rbp]
  95 00ae 4898     		cdqe
  96 00b0 0FB60402 		movzx	eax, BYTE PTR [rdx+rax]
  14:C:/Users/Computer/ies/ies/IEST2\InterfaceAluno.c ****             if (!isalpha(nome[i]) && nome[i] != ' ') {
  97              		.loc 1 14 9 discriminator 1
  98 00b4 84C0     		test	al, al
  99 00b6 7414     		je	.L2
  14:C:/Users/Computer/ies/ies/IEST2\InterfaceAluno.c ****             if (!isalpha(nome[i]) && nome[i] != ' ') {
 100              		.loc 1 14 48 discriminator 3
 101 00b8 488D1500 		lea	rdx, nome[rip]
 101      000000
 102 00bf 8B45F8   		mov	eax, DWORD PTR -8[rbp]
 103 00c2 4898     		cdqe
 104 00c4 0FB60402 		movzx	eax, BYTE PTR [rdx+rax]
  14:C:/Users/Computer/ies/ies/IEST2\InterfaceAluno.c ****             if (!isalpha(nome[i]) && nome[i] != ' ') {
 105              		.loc 1 14 41 discriminator 3
 106 00c8 3C0A     		cmp	al, 10
 107 00ca 7589     		jne	.L5
 108              	.L2:
 109              	.LBE2:
  10:C:/Users/Computer/ies/ies/IEST2\InterfaceAluno.c ****         printf("Digite seu nome: ");
 110              		.loc 1 10 11
 111 00cc 837DFC00 		cmp	DWORD PTR -4[rbp], 0
 112 00d0 0F843EFF 		je	.L6
 112      FFFF
  19:C:/Users/Computer/ies/ies/IEST2\InterfaceAluno.c ****             }
  20:C:/Users/Computer/ies/ies/IEST2\InterfaceAluno.c ****         }
  21:C:/Users/Computer/ies/ies/IEST2\InterfaceAluno.c ****     }
  22:C:/Users/Computer/ies/ies/IEST2\InterfaceAluno.c **** }
 113              		.loc 1 22 1
 114 00d6 90       		nop
 115 00d7 4883C430 		add	rsp, 48
GAS LISTING C:\Users\Computer\AppData\Local\Temp\ccMTNQWb.s 			page 4


 116 00db 5D       		pop	rbp
 117              		.cfi_restore 6
 118              		.cfi_def_cfa 7, 8
 119 00dc C3       		ret
 120              		.cfi_endproc
 121              	.LFE13:
 122              		.seh_endproc
 123              		.section .rdata,"dr"
 124              	.LC2:
 125 004b 44696769 		.ascii "Digite sua idade: \0"
 125      74652073 
 125      75612069 
 125      64616465 
 125      3A2000
 126              	.LC3:
 127 005e 256400   		.ascii "%d\0"
 128 0061 00000000 		.align 8
 128      000000
 129              	.LC4:
 130 0068 456E7472 		.ascii "Entrada invalida. Por favor, digite apenas numeros inteiros.\0"
 130      61646120 
 130      696E7661 
 130      6C696461 
 130      2E20506F 
 131 00a5 00000000 		.text
 131      00000000 
 131      000000
 132              		.globl	valida_idade
 134              		.seh_proc	valida_idade
 135              	valida_idade:
 136              	.LFB14:
  23:C:/Users/Computer/ies/ies/IEST2\InterfaceAluno.c **** 
  24:C:/Users/Computer/ies/ies/IEST2\InterfaceAluno.c **** void valida_idade() {
 137              		.loc 1 24 21
 138              		.cfi_startproc
 139 00dd 55       		push	rbp
 140              		.seh_pushreg	rbp
 141              		.cfi_def_cfa_offset 16
 142              		.cfi_offset 6, -16
 143 00de 4889E5   		mov	rbp, rsp
 144              		.seh_setframe	rbp, 0
 145              		.cfi_def_cfa_register 6
 146 00e1 4883EC30 		sub	rsp, 48
 147              		.seh_stackalloc	48
 148              		.seh_endprologue
  25:C:/Users/Computer/ies/ies/IEST2\InterfaceAluno.c ****     int validoIdade = 0;
 149              		.loc 1 25 9
 150 00e5 C745FC00 		mov	DWORD PTR -4[rbp], 0
 150      000000
  26:C:/Users/Computer/ies/ies/IEST2\InterfaceAluno.c ****     char c;
  27:C:/Users/Computer/ies/ies/IEST2\InterfaceAluno.c **** 
  28:C:/Users/Computer/ies/ies/IEST2\InterfaceAluno.c ****     while (!validoIdade) {
 151              		.loc 1 28 11
 152 00ec EB3C     		jmp	.L8
 153              	.L10:
  29:C:/Users/Computer/ies/ies/IEST2\InterfaceAluno.c ****         printf("Digite sua idade: ");
 154              		.loc 1 29 9
GAS LISTING C:\Users\Computer\AppData\Local\Temp\ccMTNQWb.s 			page 5


 155 00ee 488D0D4B 		lea	rcx, .LC2[rip]
 155      000000
 156 00f5 E8000000 		call	printf
 156      00
  30:C:/Users/Computer/ies/ies/IEST2\InterfaceAluno.c ****         if (scanf("%d", &idade) == 1) {
 157              		.loc 1 30 13
 158 00fa 488D0500 		lea	rax, idade[rip]
 158      000000
 159 0101 4889C2   		mov	rdx, rax
 160 0104 488D0D5E 		lea	rcx, .LC3[rip]
 160      000000
 161 010b E8000000 		call	scanf
 161      00
 162              		.loc 1 30 12
 163 0110 83F801   		cmp	eax, 1
 164 0113 7509     		jne	.L9
  31:C:/Users/Computer/ies/ies/IEST2\InterfaceAluno.c ****             validoIdade = 1;
 165              		.loc 1 31 25
 166 0115 C745FC01 		mov	DWORD PTR -4[rbp], 1
 166      000000
 167 011c EB0C     		jmp	.L8
 168              	.L9:
  32:C:/Users/Computer/ies/ies/IEST2\InterfaceAluno.c ****         } else {
  33:C:/Users/Computer/ies/ies/IEST2\InterfaceAluno.c ****             printf("Entrada invalida. Por favor, digite apenas numeros inteiros.\n");
 169              		.loc 1 33 13
 170 011e 488D0D68 		lea	rcx, .LC4[rip]
 170      000000
 171 0125 E8000000 		call	puts
 171      00
 172              	.L8:
  28:C:/Users/Computer/ies/ies/IEST2\InterfaceAluno.c ****         printf("Digite sua idade: ");
 173              		.loc 1 28 11
 174 012a 837DFC00 		cmp	DWORD PTR -4[rbp], 0
 175 012e 74BE     		je	.L10
  34:C:/Users/Computer/ies/ies/IEST2\InterfaceAluno.c ****         }
  35:C:/Users/Computer/ies/ies/IEST2\InterfaceAluno.c ****     }
  36:C:/Users/Computer/ies/ies/IEST2\InterfaceAluno.c **** }
 176              		.loc 1 36 1
 177 0130 90       		nop
 178 0131 4883C430 		add	rsp, 48
 179 0135 5D       		pop	rbp
 180              		.cfi_restore 6
 181              		.cfi_def_cfa 7, 8
 182 0136 C3       		ret
 183              		.cfi_endproc
 184              	.LFE14:
 185              		.seh_endproc
 186              	.Letext0:
 187              		.file 2 "C:/Program Files/CodeBlocks/MinGW/x86_64-w64-mingw32/include/crtdefs.h"
 188              		.file 3 "C:/Program Files/CodeBlocks/MinGW/x86_64-w64-mingw32/include/ctype.h"
 189              		.file 4 "<built-in>"
 190              		.file 5 "C:/Program Files/CodeBlocks/MinGW/x86_64-w64-mingw32/include/stdio.h"