GAS LISTING C:\Users\Computer\AppData\Local\Temp\ccIycmkP.s 			page 1


   1              		.file	"PersisteAluno.c"
   2              		.intel_syntax noprefix
   3              		.text
   4              	.Ltext0:
   5              		.cfi_sections	.debug_frame
   6              		.section .rdata,"dr"
   7              	.LC0:
   8 0000 6100     		.ascii "a\0"
   9              	.LC1:
  10 0002 616C756E 		.ascii "aluno.txt\0"
  10      6F2E7478 
  10      7400
  11              	.LC2:
  12 000c 4572726F 		.ascii "Erro ao abrir o arquivo!\0"
  12      20616F20 
  12      61627269 
  12      72206F20 
  12      61727175 
  13 0025 000000   		.align 8
  14              	.LC3:
  15 0028 4E6F6D65 		.ascii "Nome: %s\12Idade: %d\12Classifica\347\343o: %s\12\12\0"
  15      3A202573 
  15      0A496461 
  15      64653A20 
  15      25640A43 
  16              	.LC4:
  17 004f 416C756E 		.ascii "Aluno gravado com sucesso!\0"
  17      6F206772 
  17      61766164 
  17      6F20636F 
  17      6D207375 
  18 006a 00000000 		.text
  18      0000
  19              		.globl	persisteAluno
  21              		.seh_proc	persisteAluno
  22              	persisteAluno:
  23              	.LFB16:
  24              		.file 1 "C:/Users/Computer/ies/ies/IEST2/PersisteAluno.c"
   1:C:/Users/Computer/ies/ies/IEST2\PersisteAluno.c **** #include <stdio.h>
   2:C:/Users/Computer/ies/ies/IEST2\PersisteAluno.c **** #include <stdlib.h>
   3:C:/Users/Computer/ies/ies/IEST2\PersisteAluno.c **** 
   4:C:/Users/Computer/ies/ies/IEST2\PersisteAluno.c **** extern char nome[100];
   5:C:/Users/Computer/ies/ies/IEST2\PersisteAluno.c **** extern int idade;
   6:C:/Users/Computer/ies/ies/IEST2\PersisteAluno.c **** 
   7:C:/Users/Computer/ies/ies/IEST2\PersisteAluno.c **** void persisteAluno(const char *classificacao) {
  25              		.loc 1 7 47
  26              		.cfi_startproc
  27 0000 55       		push	rbp
  28              		.seh_pushreg	rbp
  29              		.cfi_def_cfa_offset 16
  30              		.cfi_offset 6, -16
  31 0001 4889E5   		mov	rbp, rsp
  32              		.seh_setframe	rbp, 0
  33              		.cfi_def_cfa_register 6
  34 0004 4883EC40 		sub	rsp, 64
  35              		.seh_stackalloc	64
  36              		.seh_endprologue
GAS LISTING C:\Users\Computer\AppData\Local\Temp\ccIycmkP.s 			page 2


  37 0008 48894D10 		mov	QWORD PTR 16[rbp], rcx
   8:C:/Users/Computer/ies/ies/IEST2\PersisteAluno.c ****     FILE *arquivo = fopen("aluno.txt", "a");  // Mudado para aluno.txt
  38              		.loc 1 8 21
  39 000c 488D1500 		lea	rdx, .LC0[rip]
  39      000000
  40 0013 488D0D02 		lea	rcx, .LC1[rip]
  40      000000
  41 001a E8000000 		call	fopen
  41      00
  42 001f 488945F8 		mov	QWORD PTR -8[rbp], rax
   9:C:/Users/Computer/ies/ies/IEST2\PersisteAluno.c ****     if (arquivo == NULL) {
  43              		.loc 1 9 8
  44 0023 48837DF8 		cmp	QWORD PTR -8[rbp], 0
  44      00
  45 0028 750E     		jne	.L2
  10:C:/Users/Computer/ies/ies/IEST2\PersisteAluno.c ****         printf("Erro ao abrir o arquivo!\n");
  46              		.loc 1 10 9
  47 002a 488D0D0C 		lea	rcx, .LC2[rip]
  47      000000
  48 0031 E8000000 		call	puts
  48      00
  11:C:/Users/Computer/ies/ies/IEST2\PersisteAluno.c ****         return;
  49              		.loc 1 11 9
  50 0036 EB48     		jmp	.L1
  51              	.L2:
  12:C:/Users/Computer/ies/ies/IEST2\PersisteAluno.c ****     }
  13:C:/Users/Computer/ies/ies/IEST2\PersisteAluno.c **** 
  14:C:/Users/Computer/ies/ies/IEST2\PersisteAluno.c ****     fprintf(arquivo, "Nome: %s\nIdade: %d\nClassificação: %s\n\n", nome, idade, classificacao);
  52              		.loc 1 14 5
  53 0038 488B0500 		mov	rax, QWORD PTR .refptr.idade[rip]
  53      000000
  54 003f 8B08     		mov	ecx, DWORD PTR [rax]
  55 0041 488B45F8 		mov	rax, QWORD PTR -8[rbp]
  56 0045 488B5510 		mov	rdx, QWORD PTR 16[rbp]
  57 0049 48895424 		mov	QWORD PTR 32[rsp], rdx
  57      20
  58 004e 4189C9   		mov	r9d, ecx
  59 0051 4C8B0500 		mov	r8, QWORD PTR .refptr.nome[rip]
  59      000000
  60 0058 488D1528 		lea	rdx, .LC3[rip]
  60      000000
  61 005f 4889C1   		mov	rcx, rax
  62 0062 E8000000 		call	fprintf
  62      00
  15:C:/Users/Computer/ies/ies/IEST2\PersisteAluno.c **** 
  16:C:/Users/Computer/ies/ies/IEST2\PersisteAluno.c ****     fclose(arquivo);
  63              		.loc 1 16 5
  64 0067 488B45F8 		mov	rax, QWORD PTR -8[rbp]
  65 006b 4889C1   		mov	rcx, rax
  66 006e E8000000 		call	fclose
  66      00
  17:C:/Users/Computer/ies/ies/IEST2\PersisteAluno.c ****     printf("Aluno gravado com sucesso!\n");
  67              		.loc 1 17 5
  68 0073 488D0D4F 		lea	rcx, .LC4[rip]
  68      000000
  69 007a E8000000 		call	puts
  69      00
GAS LISTING C:\Users\Computer\AppData\Local\Temp\ccIycmkP.s 			page 3


  70 007f 90       		nop
  71              	.L1:
  18:C:/Users/Computer/ies/ies/IEST2\PersisteAluno.c **** }
  72              		.loc 1 18 1
  73 0080 4883C440 		add	rsp, 64
  74 0084 5D       		pop	rbp
  75              		.cfi_restore 6
  76              		.cfi_def_cfa 7, 8
  77 0085 C3       		ret
  78              		.cfi_endproc
  79              	.LFE16:
  80              		.seh_endproc
  81              	.Letext0:
  82              		.file 2 "C:/Program Files/CodeBlocks/MinGW/x86_64-w64-mingw32/include/stdio.h"
  83              		.file 3 "C:/Program Files/CodeBlocks/MinGW/x86_64-w64-mingw32/include/crtdefs.h"
  84              		.file 4 "C:/Program Files/CodeBlocks/MinGW/x86_64-w64-mingw32/include/stdlib.h"
  85              		.file 5 "C:/Program Files/CodeBlocks/MinGW/x86_64-w64-mingw32/include/malloc.h"
 643              		.section	.rdata$.refptr.nome, "dr"
 644              		.globl	.refptr.nome
 645              		.linkonce	discard
 646              	.refptr.nome:
 647 0000 00000000 		.quad	nome
 647      00000000 
 648 0008 00000000 		.section	.rdata$.refptr.idade, "dr"
 648      00000000 
 649              		.globl	.refptr.idade
 650              		.linkonce	discard
 651              	.refptr.idade:
 652 0000 00000000 		.quad	idade
 652      00000000 
 652      00000000 
 652      00000000 
GAS LISTING C:\Users\Computer\AppData\Local\Temp\ccIycmkP.s 			page 16

